Certificate:
    Data:
        Version: 3 (0x2)
        Serial Number:
            73:4b:81:b2:e6:f1:68:7b:a4:95:65:9a:93:63:fe:29:80:cb:5a:96
        Signature Algorithm: sha256WithRSAEncryption
        Issuer: C=US, ST=North Carolina, L=Raleigh, O=Katello, OU=SomeOrgUnit, CN=sat-6-11-qa-rhel8.windhelm.example.com
        Validity
            Not Before: Jul 25 13:05:00 2022 GMT
            Not After : Jan 18 13:05:01 2038 GMT
        Subject: C=US, ST=North Carolina, O=Katello, OU=SomeOrgUnit, CN=sat-6-11-qa-rhel8.windhelm.example.com
        Subject Public Key Info:
            Public Key Algorithm: rsaEncryption
                RSA Public-Key: (4096 bit)
                Modulus:
                    00:d6:9c:91:af:aa:b2:2a:9e:ae:33:87:48:ff:09:
                    d6:76:ef:f2:cb:f7:48:ff:75:2c:d5:1e:2d:18:13:
                    94:ab:6f:73:af:0e:27:5f:15:59:31:9a:b0:01:c5:
                    2a:1f:1b:5b:d4:f8:38:ee:33:44:bc:4f:df:c6:08:
                    a3:f5:c3:de:51:c1:e2:b8:b8:c4:59:ea:16:ed:ab:
                    a6:94:9f:7a:79:e1:9b:62:f6:77:e7:67:bf:2f:d5:
                    d7:ed:42:0d:29:94:26:41:49:ab:17:4b:9d:16:3e:
                    2a:da:2d:d4:82:68:0c:5d:f8:6d:94:c8:5e:2c:26:
                    24:b9:b5:86:7a:07:f3:81:c8:13:89:54:bb:b0:db:
                    09:94:14:3d:84:f0:e5:cf:0e:f4:85:e0:f4:b6:7f:
                    17:4c:3c:44:1b:01:a9:30:c9:90:b1:d9:90:91:67:
                    9d:56:ad:f5:06:d9:1e:19:0e:1c:52:8e:fd:ec:e9:
                    a2:ed:61:34:a0:a4:60:b7:c0:15:0f:c2:1d:32:62:
                    52:5b:0e:75:9f:31:55:24:af:7f:cf:09:57:af:67:
                    35:6e:a0:a7:9c:53:30:13:a9:96:e1:ae:38:ef:ad:
                    09:df:7c:de:48:b3:43:d1:07:67:b7:ed:d0:6b:31:
                    ec:1f:a7:a0:79:8d:24:d0:b5:d4:3a:36:13:f5:83:
                    4a:00:00:04:aa:86:a2:c0:96:c9:93:7f:69:97:3c:
                    72:3a:3e:a0:5a:a7:6c:ae:05:1b:ed:1c:6c:9a:56:
                    25:39:07:5a:04:97:d5:9b:3b:0b:ca:56:6f:20:bd:
                    99:f5:e1:60:d1:66:10:d7:93:b8:26:f6:1f:31:2c:
                    1d:8c:bb:c2:63:58:dd:1c:92:d0:8d:c1:5d:bd:26:
                    d9:fe:11:ea:82:bf:48:05:0f:8f:f2:a5:60:ff:e7:
                    13:12:ca:8d:cb:63:54:5d:23:6a:aa:2e:59:17:b6:
                    1f:fa:92:be:ed:c3:95:a2:f5:21:4b:bd:db:57:fc:
                    48:d5:c9:5d:04:32:b2:1d:a5:d3:67:fc:fb:c5:e0:
                    3f:c0:0a:e1:7f:6d:c2:2d:81:d1:dd:67:38:b7:bf:
                    85:39:c5:92:49:2e:f3:d8:19:f2:6c:b0:dc:17:0c:
                    c2:10:8b:de:83:5c:4c:1a:6a:09:9a:b8:59:d9:0e:
                    b1:73:36:f6:d6:2c:4f:9c:5a:b3:95:99:44:8c:08:
                    82:05:a7:a8:13:97:93:6e:42:ec:92:58:13:54:00:
                    1d:20:67:08:23:e0:59:cd:b9:6c:3a:4e:59:3b:f7:
                    ee:45:91:30:23:27:7c:d1:60:3a:d7:01:cd:04:6c:
                    1c:d1:f3:a6:83:1d:13:74:22:04:44:8a:b6:1a:02:
                    bf:16:2b
                Exponent: 65537 (0x10001)
        X509v3 extensions:
            X509v3 Basic Constraints:
                CA:FALSE
            X509v3 Key Usage:
                Digital Signature, Key Encipherment
            X509v3 Extended Key Usage:
                TLS Web Server Authentication, TLS Web Client Authentication
            Netscape Cert Type:
                SSL Server
            Netscape Comment:
                Katello SSL Tool Generated Certificate
            X509v3 Subject Key Identifier:
                1B:AC:DF:4A:B2:78:8A:77:18:69:27:9C:B3:C4:A7:58:E3:C0:AC:96
            X509v3 Authority Key Identifier:
                keyid:D7:D2:1C:08:40:3F:CD:18:14:4C:B8:56:1C:DE:EC:42:01:67:C6:75
                DirName:/C=US/ST=North Carolina/L=Raleigh/O=Katello/OU=SomeOrgUnit/CN=sat-6-11-qa-rhel8.windhelm.example.com
                serial:73:4B:81:B2:E6:F1:68:7B:A4:95:65:9A:93:63:FE:29:80:CB:5A:93

            X509v3 Subject Alternative Name:
                DNS:sat-6-11-qa-rhel8.windhelm.example.com
    Signature Algorithm: sha256WithRSAEncryption
         21:6d:8e:aa:8d:94:16:ef:71:58:bd:49:3b:33:78:0c:90:56:
         ce:a8:94:69:fc:3c:13:23:d4:b9:3d:10:a3:85:f3:6a:78:5d:
         86:14:42:1c:70:a1:6e:df:d9:dd:be:66:e6:3c:ab:26:21:07:
         29:4d:79:85:48:73:5d:18:34:38:e3:9d:87:9b:67:0f:aa:63:
         e8:25:85:21:e3:73:9f:75:e6:46:0a:d7:56:7c:05:5f:57:43:
         f2:2d:9d:59:9c:83:e6:68:3d:6b:1d:9c:50:16:bd:60:23:ab:
         78:e5:e5:5a:ef:f1:d6:d1:a7:52:48:fd:2b:ef:51:03:b3:a4:
         43:48:21:03:d9:06:a5:d6:86:13:bb:4c:b2:5d:cb:d3:79:5f:
         77:f7:e8:ca:ee:1b:ba:3f:d9:b3:b1:a6:b1:41:e2:79:a8:bc:
         a4:30:12:66:58:e4:14:8f:e2:b3:cc:6e:9f:92:c9:d2:90:46:
         64:39:38:6f:c5:04:fb:d6:f2:71:8b:25:0a:78:5e:4c:ea:15:
         4a:22:c1:50:64:9e:89:8c:10:6a:9f:26:e8:61:50:c1:9e:3a:
         4a:43:07:1e:53:64:9e:cc:4c:39:50:5c:cc:fd:83:50:e8:44:
         5a:d4:82:72:8a:61:1d:5f:5b:e1:8c:b4:2c:15:8d:88:0a:51:
         63:64:ee:bf:07:15:ca:8e:49:c9:aa:ba:e1:c6:e1:79:e9:03:
         af:7f:0d:8d:0c:d4:5d:e9:ba:d5:b9:df:1c:0a:26:33:47:84:
         b4:51:dd:ca:7f:39:fd:f6:15:8d:c9:db:ec:ce:97:fc:76:33:
         8a:b3:4c:8c:83:4a:e0:b5:dc:23:7e:45:ee:3e:3f:ac:0d:99:
         53:44:66:a7:8d:fb:4f:fa:a0:9c:21:41:e1:bd:f8:14:b3:a2:
         81:c6:2f:87:82:d8:d5:0b:08:28:b2:be:91:e7:af:21:6e:e7:
         c6:fb:87:ff:20:a4:b1:43:cf:35:9a:c4:3d:69:cf:a7:dc:86:
         20:85:fb:29:33:0f:2d:08:05:56:99:a2:c3:f8:a5:70:74:d1:
         22:51:6f:b4:3d:0d:d8:a5:0f:dc:f8:21:19:db:23:42:91:ef:
         e2:59:6b:ad:4b:20:75:67:67:f8:00:0a:a1:bc:ed:e9:c5:bc:
         29:35:60:41:97:6e:8f:15:dc:ea:a9:be:8f:62:a5:9b:ed:41:
         c5:08:d8:b1:1e:3f:28:b9:35:a0:28:18:a7:39:42:d5:ca:eb:
         0c:b8:36:1d:99:0c:2f:4b:05:12:12:06:6b:2a:c7:f7:f3:fd:
         b7:63:43:0c:32:c6:d7:65:40:97:e1:63:49:b4:00:8e:af:27:
         86:81:85:e1:fe:93:d1:6f
-----BEGIN CERTIFICATE-----
MIIHTDCCBTSgAwIBAgIUc0uBsubxaHuklWWak2P+KYDLWpYwDQYJKoZIhvcNAQEL
BQAwgZExCzAJBgNVBAYTAlVTMRcwFQYDVQQIDA5Ob3J0aCBDYXJvbGluYTEQMA4G
A1UEBwwHUmFsZWlnaDEQMA4GA1UECgwHS2F0ZWxsbzEUMBIGA1UECwwLU29tZU9y
Z1VuaXQxLzAtBgNVBAMMJnNhdC02LTExLXFhLXJoZWw4LndpbmRoZWxtLmV4YW1w
bGUuY29tMB4XDTIyMDcyNTEzMDUwMFoXDTM4MDExODEzMDUwMVowfzELMAkGA1UE
BhMCVVMxFzAVBgNVBAgMDk5vcnRoIENhcm9saW5hMRAwDgYDVQQKDAdLYXRlbGxv
MRQwEgYDVQQLDAtTb21lT3JnVW5pdDEvMC0GA1UEAwwmc2F0LTYtMTEtcWEtcmhl
bDgud2luZGhlbG0uZXhhbXBsZS5jb20wggIiMA0GCSqGSIb3DQEBAQUAA4ICDwAw
ggIKAoICAQDWnJGvqrIqnq4zh0j/CdZ27/LL90j/dSzVHi0YE5Srb3OvDidfFVkx
mrABxSofG1vU+DjuM0S8T9/GCKP1w95RweK4uMRZ6hbtq6aUn3p54Zti9nfnZ78v
1dftQg0plCZBSasXS50WPiraLdSCaAxd+G2UyF4sJiS5tYZ6B/OByBOJVLuw2wmU
FD2E8OXPDvSF4PS2fxdMPEQbAakwyZCx2ZCRZ51WrfUG2R4ZDhxSjv3s6aLtYTSg
pGC3wBUPwh0yYlJbDnWfMVUkr3/PCVevZzVuoKecUzATqZbhrjjvrQnffN5Is0PR
B2e37dBrMewfp6B5jSTQtdQ6NhP1g0oAAASqhqLAlsmTf2mXPHI6PqBap2yuBRvt
HGyaViU5B1oEl9WbOwvKVm8gvZn14WDRZhDXk7gm9h8xLB2Mu8JjWN0cktCNwV29
Jtn+EeqCv0gFD4/ypWD/5xMSyo3LY1RdI2qqLlkXth/6kr7tw5Wi9SFLvdtX/EjV
yV0EMrIdpdNn/PvF4D/ACuF/bcItgdHdZzi3v4U5xZJJLvPYGfJssNwXDMIQi96D
XEwaagmauFnZDrFzNvbWLE+cWrOVmUSMCIIFp6gTl5NuQuySWBNUAB0gZwgj4FnN
uWw6Tlk79+5FkTAjJ3zRYDrXAc0EbBzR86aDHRN0IgREirYaAr8WKwIDAQABo4IB
qzCCAacwCQYDVR0TBAIwADALBgNVHQ8EBAMCBaAwHQYDVR0lBBYwFAYIKwYBBQUH
AwEGCCsGAQUFBwMCMBEGCWCGSAGG+EIBAQQEAwIGQDA1BglghkgBhvhCAQ0EKBYm
S2F0ZWxsbyBTU0wgVG9vbCBHZW5lcmF0ZWQgQ2VydGlmaWNhdGUwHQYDVR0OBBYE
FBus30qyeIp3GGknnLPEp1jjwKyWMIHRBgNVHSMEgckwgcaAFNfSHAhAP80YFEy4
Vhze7EIBZ8Z1oYGXpIGUMIGRMQswCQYDVQQGEwJVUzEXMBUGA1UECAwOTm9ydGgg
Q2Fyb2xpbmExEDAOBgNVBAcMB1JhbGVpZ2gxEDAOBgNVBAoMB0thdGVsbG8xFDAS
BgNVBAsMC1NvbWVPcmdVbml0MS8wLQYDVQQDDCZzYXQtNi0xMS1xYS1yaGVsOC53
aW5kaGVsbS5leGFtcGxlLmNvbYIUc0uBsubxaHuklWWak2P+KYDLWpMwMQYDVR0R
BCowKIImc2F0LTYtMTEtcWEtcmhlbDgud2luZGhlbG0uZXhhbXBsZS5jb20wDQYJ
KoZIhvcNAQELBQADggIBACFtjqqNlBbvcVi9STszeAyQVs6olGn8PBMj1Lk9EKOF
82p4XYYUQhxwoW7f2d2+ZuY8qyYhBylNeYVIc10YNDjjnYebZw+qY+glhSHjc591
5kYK11Z8BV9XQ/ItnVmcg+ZoPWsdnFAWvWAjq3jl5Vrv8dbRp1JI/SvvUQOzpENI
IQPZBqXWhhO7TLJdy9N5X3f36MruG7o/2bOxprFB4nmovKQwEmZY5BSP4rPMbp+S
ydKQRmQ5OG/FBPvW8nGLJQp4XkzqFUoiwVBknomMEGqfJuhhUMGeOkpDBx5TZJ7M
TDlQXMz9g1DoRFrUgnKKYR1fW+GMtCwVjYgKUWNk7r8HFcqOScmquuHG4XnpA69/
DY0M1F3putW53xwKJjNHhLRR3cp/Of32FY3J2+zOl/x2M4qzTIyDSuC13CN+Re4+
P6wNmVNEZqeN+0/6oJwhQeG9+BSzooHGL4eC2NULCCiyvpHnryFu58b7h/8gpLFD
zzWaxD1pz6fchiCF+ykzDy0IBVaZosP4pXB00SJRb7Q9DdilD9z4IRnbI0KR7+JZ
a61LIHVnZ/gACqG87enFvCk1YEGXbo8V3Oqpvo9ipZvtQcUI2LEePyi5NaAoGKc5
QtXK6wy4Nh2ZDC9LBRISBmsqx/fz/bdjQwwyxtdlQJfhY0m0AI6vJ4aBheH+k9Fv
-----END CERTIFICATE-----
-----BEGIN PRIVATE KEY-----
MIIJQgIBADANBgkqhkiG9w0BAQEFAASCCSwwggkoAgEAAoICAQDWnJGvqrIqnq4z
h0j/CdZ27/LL90j/dSzVHi0YE5Srb3OvDidfFVkxmrABxSofG1vU+DjuM0S8T9/G
CKP1w95RweK4uMRZ6hbtq6aUn3p54Zti9nfnZ78v1dftQg0plCZBSasXS50WPira
LdSCaAxd+G2UyF4sJiS5tYZ6B/OByBOJVLuw2wmUFD2E8OXPDvSF4PS2fxdMPEQb
AakwyZCx2ZCRZ51WrfUG2R4ZDhxSjv3s6aLtYTSgpGC3wBUPwh0yYlJbDnWfMVUk
r3/PCVevZzVuoKecUzATqZbhrjjvrQnffN5Is0PRB2e37dBrMewfp6B5jSTQtdQ6
NhP1g0oAAASqhqLAlsmTf2mXPHI6PqBap2yuBRvtHGyaViU5B1oEl9WbOwvKVm8g
vZn14WDRZhDXk7gm9h8xLB2Mu8JjWN0cktCNwV29Jtn+EeqCv0gFD4/ypWD/5xMS
yo3LY1RdI2qqLlkXth/6kr7tw5Wi9SFLvdtX/EjVyV0EMrIdpdNn/PvF4D/ACuF/
bcItgdHdZzi3v4U5xZJJLvPYGfJssNwXDMIQi96DXEwaagmauFnZDrFzNvbWLE+c
WrOVmUSMCIIFp6gTl5NuQuySWBNUAB0gZwgj4FnNuWw6Tlk79+5FkTAjJ3zRYDrX
Ac0EbBzR86aDHRN0IgREirYaAr8WKwIDAQABAoICACXlziA8P2whS1fUGwLWhOXJ
55E3IM/jrEASLRpkUsuXSdFu6Wr0BSUqUMxvOcn2ddf84WjG6utqG3UID5QVu4uq
dlPyZNIP8W6U8jyqkOE3As6OAYx+mJdk5tWB5XsjK0I6NRlPA/VqkvymPTGuGAj8
FrXAUEjxj2iv8ohYIRsY7sJAkUhg1actj9OLCrnuxSVjHTOg68dNmSU/vNXdskyF
w+65YmJtI6jK7HK2ODAoChUtCNVsZfO8M0wfglifCbLdA/gKbKDpAEUTLLmtx6s0
yY24lwCW/BVszDUcI/fHEchCb6pc5avi5+DmAPj8/tp0KnVshETK5yhEZm/jeEyG
4uldfy0xlt+WbrD/v1EwqDr5sSO4fis6sV9iCB7fORUNadpv2h8kzp+P1apJY6q5
ND1vErEU8B9AxuUDNZQdmfd/eUkTrtut+3WGXt3SsXgJzyq4tAt/NpZ25nz9qhfJ
ywYraObXffiWZ04VegI8mACIq8c5D4qMS8HWHw35EgMnpQHiF8SM8Q6j3lNPpV6k
wwEEgsaygmwbl7geO0uEwxOmZ2yVGiAZUFHmjEJ5KNC0JayUeqnAl8eOefua0Mzm
ygVaOKVp75gonduxC30wNusOh7XUQYVtsPS4T7kN0M/gjW7scc0v5nYGbEiR5kXJ
BTwlp8S9GZbkFhSTRQohAoIBAQDxRgMwQW6iJ2M0MGTWICruRDZt0qTFk/FP1HLX
lrTD9XCxtdfEthULW+2P0CZB4/vpkgIUumKaiD+gC5wRg0zGPQXwUyInOatmmURh
3gcoJDaeaoRSGUVJJukUSBougJMxCt4mU6x8g6cavDMQ446te64Xc4p+wRQNDmxC
eUX8JG9AWleypgLKvmmFAE5RNVwiYYgtKlKv1fUVE0yt/0/C1gdJtTXK6EAACKzg
6MWW1sKuxnKFFSstBNkbYVp95eSRq7JT0qXaslu2crn1AWhPOGJ5wZSa+e5WlUou
ALOfmVS4Fyu21yLqXuLGqHRzzs96tk602mvjF6yFjYfQ0417AoIBAQDjtfRrDQD6
UShS3vU/wfJK3WCX67fDubdtjTP2G0sYreaj/GsY+WCjzidg51bSbpuk6QrSUPVo
MZsDoLt2ibF6ciRcnb+MyBWgJyo9hcPSytJfjlB82YU8CaJvREG87r5hW06v75o+
kdx/KG8SskM0xd1Xj7AvL1Pu6W8KU5spHqcetYa1Hj+oM0l5P7YL5gE7mh27Maph
S+YS2L4UH1CwvKJ56xlXzsu5KPeR+Q87aKJl4dQpuYlNV+YgKedMBplQ8lOtEVEZ
35aaaVYqgQbLi9sdrin1xwFQbUgX7iWysmJoCHREuNiP7MRov5UqCPTiTC2Hs7nD
7V5FVJ7RasMRAoIBAGuSr7FAOzeJIC4QtaTSytFZEHt+w4BkKd9R9bIxu37zW7+g
OAe4t0FNR2orgCM4pwTI2KytPXFw9g1Bn+AfDogEhTVVm5CpocYo59hKyh4Xp1KS
Y1THd6DZ/GnSi/nX0ci387xa6jjJ6iN9bbdF/kNTNZe3KDTDmVEI8TPiJlX5WLD0
ls1MP0puA1YNgN2sUNvzaGfayusjFhbDeBjMEJ/qFW3DoaxKSN66/3l3z0Ell7+d
M0oq2glEdBhFG7euXG6mgufkr5YGl+WM2WRnsD5CAYYPzVYbwSxRe7VvEqdCEgfS
LOdknGiqzamNSf6oYtFvnz/7csbZs04IgFmXOSkCggEAcJluBm2EuULedLQpg+CM
xjZX6Ge4FAHG0VZMhnsSlF6RuS89ajkOb5GmaUWb6iylrFNMdZlw8Jfu9klJyaDm
8Qx2LJIYwS3De9FCEvANWDPQ+U1vQX1yY7DD8M9IznskCxJSg68wj5Yi+YHuAsnB
b9wTypOT5JE7qN0nemzDQf8VVpsexHrzsWHDCEDX7WRL4cQgxYsWnEwitdkVjO+7
P9nXYgA+JOxuUt4OJdGJla/09fpIpmVHnsZDVk5CQJbWw29Ar0jr2KZ2W16RLC1n
RcmfjTqtJwrD/Jg9WQ/69jU9cgIUNFNPS0QiD0YFJacOKMTQktTtnBPJVPE2I4nu
cQKCAQEA6EbBRY6+abrd4Djg7wVggTjKAIiJtwXzCu0l5Ypi04JldLOJ+8dmX1PK
Thqywj+O6SmpKmF35CslYejnW9XZObxF2oJFNwKs/Pgoue7nvd0wExR+h6maJCyI
9WLie6Fomcm+3oztykykAAAMRCgADGvJfUlbTFhtbnObevkj9xr9Nirg4iofcJgD
6/yIu+6Up4fO6OOLif194U7F9rOkuP04bPggZmIkrW/stMxPqHjdZ+Pck9BgnYwm
Uj6JFPfVTLLs6xZTZXabKzCdt4fknx47f/1G9d2FCgYuieANutdHiUCA38itm1X0
o0BJWX9675gUO0kknhWJkUPQJkBIAw==
-----END PRIVATE KEY-----
